target datalayout = "e-m:e-p270:32:32-p271:32:32-p272:64:64-i64:64-i128:128-f80:128-n8:16:32:64-S128"
target triple = "x86_64-pc-linux-gnu"

%struct._object = type { i64, ptr }
%"struct.nanobind::detail::type_data" = type { i32, i32, ptr, ptr, ptr, ptr, ptr, ptr, ptr, ptr, %union.anon, ptr, ptr }
%union.anon = type { %struct.anon }
%struct.anon = type { ptr, ptr }
%"struct.nanobind::detail::nb_inst" = type { %struct._object, i32, i32 }
%"class.std::type_info" = type { ptr, ptr }

@_ZN8nanobind6detail9internalsE = external hidden global ptr, align 8
@PyExc_RuntimeWarning = external global ptr, align 8
@_Py_NoneStruct = external global %struct._object, align 8
@__const._ZN8nanobind6detail11nb_type_getEPKSt9type_infoP7_objecthPNS0_12cleanup_listEPPv.errors = private unnamed_addr constant [4 x ptr] [ptr @.str.13, ptr @.str.14, ptr @.str.15, ptr @.str.16], align 16
@.str.17 = private unnamed_addr constant [28 x i8] c"nanobind: %s of type '%s'!\0A\00", align 1
@_ZN8nanobind6detail13nb_meta_cacheE = external hidden global ptr, align 8

; Function Attrs: mustprogress nounwind uwtable
define linkonce_odr noundef ptr @_ZNKSt9type_info4nameEv(ptr noundef nonnull align 8 dereferenceable(16) %0) #6 comdat align 2 {
  %2 = alloca ptr, align 8
  store ptr %0, ptr %2, align 8
  %3 = load ptr, ptr %2, align 8
  %4 = getelementptr inbounds nuw %"class.std::type_info", ptr %3, i32 0, i32 1
  %5 = load ptr, ptr %4, align 8
  %6 = getelementptr inbounds i8, ptr %5, i64 0
  %7 = load i8, ptr %6, align 1
  %8 = sext i8 %7 to i32
  %9 = icmp eq i32 %8, 42
  br i1 %9, label %10, label %14

10:                                               ; preds = %1
  %11 = getelementptr inbounds nuw %"class.std::type_info", ptr %3, i32 0, i32 1
  %12 = load ptr, ptr %11, align 8
  %13 = getelementptr inbounds i8, ptr %12, i64 1
  br label %17

14:                                               ; preds = %1
  %15 = getelementptr inbounds nuw %"class.std::type_info", ptr %3, i32 0, i32 1
  %16 = load ptr, ptr %15, align 8
  br label %17

17:                                               ; preds = %14, %10
  %18 = phi ptr [ %13, %10 ], [ %16, %14 ]
  ret ptr %18
}

; Function Attrs: inlinehint mustprogress nounwind uwtable
define linkonce_odr hidden noundef ptr @_ZN8nanobind6detail8inst_ptrEPNS0_7nb_instE(ptr noundef %0) #2 comdat {
  %2 = alloca ptr, align 8
  %3 = alloca ptr, align 8
  store ptr %0, ptr %2, align 8
  call void @llvm.lifetime.start.p0(i64 8, ptr %3) #20
  %4 = load ptr, ptr %2, align 8
  %5 = ptrtoint ptr %4 to i64
  %6 = load ptr, ptr %2, align 8
  %7 = getelementptr inbounds nuw %"struct.nanobind::detail::nb_inst", ptr %6, i32 0, i32 1
  %8 = load i32, ptr %7, align 8
  %9 = sext i32 %8 to i64
  %10 = add nsw i64 %5, %9
  %11 = inttoptr i64 %10 to ptr
  store ptr %11, ptr %3, align 8
  %12 = load ptr, ptr %2, align 8
  %13 = getelementptr inbounds nuw %"struct.nanobind::detail::nb_inst", ptr %12, i32 0, i32 2
  %14 = load i32, ptr %13, align 4
  %15 = lshr i32 %14, 2
  %16 = and i32 %15, 1
  %17 = icmp ne i32 %16, 0
  br i1 %17, label %18, label %20

18:                                               ; preds = %1
  %19 = load ptr, ptr %3, align 8
  br label %23

20:                                               ; preds = %1
  %21 = load ptr, ptr %3, align 8
  %22 = load ptr, ptr %21, align 8
  br label %23

23:                                               ; preds = %20, %18
  %24 = phi ptr [ %19, %18 ], [ %22, %20 ]
  call void @llvm.lifetime.end.p0(i64 8, ptr %3) #20
  ret ptr %24
}

; Function Attrs: inlinehint mustprogress nounwind uwtable
define linkonce_odr noundef zeroext i1 @_ZNKSt9type_infoeqERKS_(ptr noundef nonnull align 8 dereferenceable(16) %0, ptr noundef nonnull align 8 dereferenceable(16) %1) #2 comdat align 2 {
  %3 = alloca i1, align 1
  %4 = alloca ptr, align 8
  %5 = alloca ptr, align 8
  store ptr %0, ptr %4, align 8
  store ptr %1, ptr %5, align 8
  %6 = load ptr, ptr %4, align 8
  %7 = getelementptr inbounds nuw %"class.std::type_info", ptr %6, i32 0, i32 1
  %8 = load ptr, ptr %7, align 8
  %9 = load ptr, ptr %5, align 8
  %10 = getelementptr inbounds nuw %"class.std::type_info", ptr %9, i32 0, i32 1
  %11 = load ptr, ptr %10, align 8
  %12 = icmp eq ptr %8, %11
  br i1 %12, label %13, label %14

13:                                               ; preds = %2
  store i1 true, ptr %3, align 1
  br label %30

14:                                               ; preds = %2
  %15 = getelementptr inbounds nuw %"class.std::type_info", ptr %6, i32 0, i32 1
  %16 = load ptr, ptr %15, align 8
  %17 = getelementptr inbounds i8, ptr %16, i64 0
  %18 = load i8, ptr %17, align 1
  %19 = sext i8 %18 to i32
  %20 = icmp ne i32 %19, 42
  br i1 %20, label %21, label %28

21:                                               ; preds = %14
  %22 = getelementptr inbounds nuw %"class.std::type_info", ptr %6, i32 0, i32 1
  %23 = load ptr, ptr %22, align 8
  %24 = load ptr, ptr %5, align 8
  %25 = call noundef ptr @_ZNKSt9type_info4nameEv(ptr noundef nonnull align 8 dereferenceable(16) %24) #20
  %26 = call i32 @strcmp(ptr noundef %23, ptr noundef %25) #20
  %27 = icmp eq i32 %26, 0
  br label %28

28:                                               ; preds = %21, %14
  %29 = phi i1 [ false, %14 ], [ %27, %21 ]
  store i1 %29, ptr %3, align 1
  br label %30

30:                                               ; preds = %28, %13
  %31 = load i1, ptr %3, align 1
  ret i1 %31
}

; Function Attrs: alwaysinline mustprogress nounwind uwtable
define linkonce_odr hidden noundef ptr @_ZN8nanobind6detail12nb_type_dataEP11_typeobject(ptr noundef %0) #5 comdat {
  %2 = alloca ptr, align 8
  store ptr %0, ptr %2, align 8
  %3 = load ptr, ptr %2, align 8
  %4 = getelementptr inbounds nuw i8, ptr %3, i64 888
  ret ptr %4
}

; Function Attrs: mustprogress nounwind uwtable
define noundef zeroext i1 @_ZN8nanobind6detail13nb_type_checkEP7_object(ptr noundef %0) #6 {
  %2 = alloca ptr, align 8
  %3 = alloca ptr, align 8
  %4 = alloca ptr, align 8
  store ptr %0, ptr %2, align 8
  call void @llvm.lifetime.start.p0(i64 8, ptr %3) #20
  %5 = load ptr, ptr %2, align 8
  %6 = getelementptr inbounds nuw %struct._object, ptr %5, i32 0, i32 1
  %7 = load ptr, ptr %6, align 8
  store ptr %7, ptr %3, align 8
  call void @llvm.lifetime.start.p0(i64 8, ptr %4) #20
  %8 = load ptr, ptr %3, align 8
  %9 = getelementptr inbounds nuw %struct._object, ptr %8, i32 0, i32 1
  %10 = load ptr, ptr %9, align 8
  store ptr %10, ptr %4, align 8
  %11 = load ptr, ptr %4, align 8
  %12 = load ptr, ptr @_ZN8nanobind6detail13nb_meta_cacheE, align 8
  %13 = icmp eq ptr %11, %12
  call void @llvm.lifetime.end.p0(i64 8, ptr %4) #20
  call void @llvm.lifetime.end.p0(i64 8, ptr %3) #20
  ret i1 %13
}

; Function Attrs: mustprogress nounwind uwtable
define noundef zeroext i1 @_ZN8nanobind6detail11nb_type_getEPKSt9type_infoP7_objecthPNS0_12cleanup_listEPPv(ptr noundef %0, ptr noundef %1, i8 noundef zeroext %2, ptr noundef %3, ptr noundef %4) #6 personality ptr @__gxx_personality_v0 {
  %6 = alloca i1, align 1
  %7 = alloca ptr, align 8
  %8 = alloca ptr, align 8
  %9 = alloca i8, align 1
  %10 = alloca ptr, align 8
  %11 = alloca ptr, align 8
  %12 = alloca ptr, align 8
  %13 = alloca ptr, align 8
  %14 = alloca i8, align 1
  %15 = alloca ptr, align 8
  %16 = alloca ptr, align 8
  %17 = alloca ptr, align 8
  %18 = alloca i8, align 1
  %19 = alloca ptr, align 8
  %20 = alloca [4 x ptr], align 16
  %21 = alloca i32, align 4
  store ptr %0, ptr %7, align 8
  store ptr %1, ptr %8, align 8
  store i8 %2, ptr %9, align 1
  store ptr %3, ptr %10, align 8
  store ptr %4, ptr %11, align 8
  %22 = load ptr, ptr %8, align 8
  %23 = icmp eq ptr %22, @_Py_NoneStruct
  br i1 %23, label %24, label %26

24:                                               ; preds = %5
  %25 = load ptr, ptr %11, align 8
  store ptr null, ptr %25, align 8
  store i1 true, ptr %6, align 1
  br label %159

26:                                               ; preds = %5
  call void @llvm.lifetime.start.p0(i64 8, ptr %12) #20
  %27 = load ptr, ptr %8, align 8
  %28 = getelementptr inbounds nuw %struct._object, ptr %27, i32 0, i32 1
  %29 = load ptr, ptr %28, align 8
  store ptr %29, ptr %12, align 8
  call void @llvm.lifetime.start.p0(i64 8, ptr %13) #20
  store ptr null, ptr %13, align 8
  call void @llvm.lifetime.start.p0(i64 1, ptr %14) #20
  %30 = load ptr, ptr %12, align 8
  %31 = call noundef zeroext i1 @_ZN8nanobind6detail13nb_type_checkEP7_object(ptr noundef %30) #20
  %32 = zext i1 %31 to i8
  store i8 %32, ptr %14, align 1
  call void @llvm.lifetime.start.p0(i64 8, ptr %15) #20
  store ptr null, ptr %15, align 8
  call void @llvm.lifetime.start.p0(i64 8, ptr %16) #20
  %33 = load ptr, ptr @_ZN8nanobind6detail9internalsE, align 8
  store ptr %33, ptr %16, align 8
  %34 = load i8, ptr %14, align 1, !range !3, !noundef !4
  %35 = trunc i8 %34 to i1
  %36 = zext i1 %35 to i64
  %37 = call i64 @llvm.expect.i64(i64 %36, i64 1)
  %38 = icmp ne i64 %37, 0
  br i1 %38, label %39, label %122

39:                                               ; preds = %26
  call void @llvm.lifetime.start.p0(i64 8, ptr %17) #20
  %40 = load ptr, ptr %12, align 8
  %41 = call noundef ptr @_ZN8nanobind6detail12nb_type_dataEP11_typeobject(ptr noundef %40) #20
  store ptr %41, ptr %17, align 8
  %42 = load ptr, ptr %17, align 8
  %43 = getelementptr inbounds nuw %"struct.nanobind::detail::type_data", ptr %42, i32 0, i32 3
  %44 = load ptr, ptr %43, align 8
  store ptr %44, ptr %13, align 8
  call void @llvm.lifetime.start.p0(i64 1, ptr %18) #20
  %45 = load ptr, ptr %7, align 8
  %46 = load ptr, ptr %13, align 8
  %47 = icmp eq ptr %45, %46
  br i1 %47, label %52, label %48

48:                                               ; preds = %39
  %49 = load ptr, ptr %7, align 8
  %50 = load ptr, ptr %13, align 8
  %51 = call noundef zeroext i1 @_ZNKSt9type_infoeqERKS_(ptr noundef nonnull align 8 dereferenceable(16) %49, ptr noundef nonnull align 8 dereferenceable(16) %50) #20
  br label %52

52:                                               ; preds = %48, %39
  %53 = phi i1 [ true, %39 ], [ %51, %48 ]
  %54 = zext i1 %53 to i8
  store i8 %54, ptr %18, align 1
  %55 = load i8, ptr %18, align 1, !range !3, !noundef !4
  %56 = trunc i8 %55 to i1
  %57 = xor i1 %56, true
  %58 = zext i1 %57 to i64
  %59 = call i64 @llvm.expect.i64(i64 %58, i64 0)
  %60 = icmp ne i64 %59, 0
  br i1 %60, label %61, label %78

61:                                               ; preds = %52
  %62 = load ptr, ptr %16, align 8
  %63 = load ptr, ptr %7, align 8
  %64 = invoke noundef ptr @_ZN8nanobind6detail11nb_type_c2pEPNS0_12nb_internalsEPKSt9type_info(ptr noundef %62, ptr noundef %63)
          to label %65 unwind label %161

65:                                               ; preds = %61
  store ptr %64, ptr %15, align 8
  %66 = load ptr, ptr %15, align 8
  %67 = icmp ne ptr %66, null
  br i1 %67, label %68, label %77

68:                                               ; preds = %65
  %69 = load ptr, ptr %12, align 8
  %70 = load ptr, ptr %15, align 8
  %71 = getelementptr inbounds nuw %"struct.nanobind::detail::type_data", ptr %70, i32 0, i32 4
  %72 = load ptr, ptr %71, align 8
  %73 = invoke i32 @PyType_IsSubtype(ptr noundef %69, ptr noundef %72)
          to label %74 unwind label %161

74:                                               ; preds = %68
  %75 = icmp ne i32 %73, 0
  %76 = zext i1 %75 to i8
  store i8 %76, ptr %18, align 1
  br label %77

77:                                               ; preds = %74, %65
  br label %78

78:                                               ; preds = %77, %52
  %79 = load i8, ptr %18, align 1, !range !3, !noundef !4
  %80 = trunc i8 %79 to i1
  %81 = zext i1 %80 to i64
  %82 = call i64 @llvm.expect.i64(i64 %81, i64 1)
  %83 = icmp ne i64 %82, 0
  br i1 %83, label %84, label %118

84:                                               ; preds = %78
  call void @llvm.lifetime.start.p0(i64 8, ptr %19) #20
  %85 = load ptr, ptr %8, align 8
  store ptr %85, ptr %19, align 8
  %86 = load i8, ptr %9, align 1
  %87 = zext i8 %86 to i32
  %88 = and i32 %87, 2
  %89 = load ptr, ptr %19, align 8
  %90 = getelementptr inbounds nuw %"struct.nanobind::detail::nb_inst", ptr %89, i32 0, i32 2
  %91 = load i32, ptr %90, align 4
  %92 = and i32 %91, 3
  %93 = xor i32 %88, %92
  %94 = icmp ne i32 %93, 2
  %95 = zext i1 %94 to i64
  %96 = call i64 @llvm.expect.i64(i64 %95, i64 0)
  %97 = icmp ne i64 %96, 0
  br i1 %97, label %98, label %112

98:                                               ; preds = %84
  call void @llvm.lifetime.start.p0(i64 32, ptr %20) #20
  call void @llvm.memcpy.p0.p0.i64(ptr align 16 %20, ptr align 16 @__const._ZN8nanobind6detail11nb_type_getEPKSt9type_infoP7_objecthPNS0_12cleanup_listEPPv.errors, i64 32, i1 false)
  %99 = load ptr, ptr @PyExc_RuntimeWarning, align 8
  %100 = load ptr, ptr %19, align 8
  %101 = getelementptr inbounds nuw %"struct.nanobind::detail::nb_inst", ptr %100, i32 0, i32 2
  %102 = load i32, ptr %101, align 4
  %103 = and i32 %102, 3
  %104 = zext i32 %103 to i64
  %105 = getelementptr inbounds nuw [4 x ptr], ptr %20, i64 0, i64 %104
  %106 = load ptr, ptr %105, align 8
  %107 = load ptr, ptr %17, align 8
  %108 = getelementptr inbounds nuw %"struct.nanobind::detail::type_data", ptr %107, i32 0, i32 2
  %109 = load ptr, ptr %108, align 8
  %110 = invoke i32 (ptr, i64, ptr, ...) @PyErr_WarnFormat(ptr noundef %99, i64 noundef 1, ptr noundef @.str.17, ptr noundef %106, ptr noundef %109)
          to label %111 unwind label %161

111:                                              ; preds = %98
  store i1 false, ptr %6, align 1
  store i32 1, ptr %21, align 4
  call void @llvm.lifetime.end.p0(i64 32, ptr %20) #20
  br label %117

112:                                              ; preds = %84
  %113 = load ptr, ptr %19, align 8
  %114 = invoke noundef ptr @_ZN8nanobind6detail8inst_ptrEPNS0_7nb_instE(ptr noundef %113)
          to label %115 unwind label %161

115:                                              ; preds = %112
  %116 = load ptr, ptr %11, align 8
  store ptr %114, ptr %116, align 8
  store i1 true, ptr %6, align 1
  store i32 1, ptr %21, align 4
  br label %117

117:                                              ; preds = %115, %111
  call void @llvm.lifetime.end.p0(i64 8, ptr %19) #20
  br label %119

118:                                              ; preds = %78
  store i32 0, ptr %21, align 4
  br label %119

119:                                              ; preds = %118, %117
  call void @llvm.lifetime.end.p0(i64 1, ptr %18) #20
  call void @llvm.lifetime.end.p0(i64 8, ptr %17) #20
  %120 = load i32, ptr %21, align 4
  switch i32 %120, label %158 [
    i32 0, label %121
  ]

121:                                              ; preds = %119
  br label %122

122:                                              ; preds = %121, %26
  %123 = load i8, ptr %9, align 1
  %124 = zext i8 %123 to i32
  %125 = and i32 %124, 1
  %126 = icmp ne i32 %125, 0
  br i1 %126, label %127, label %157

127:                                              ; preds = %122
  %128 = load ptr, ptr %10, align 8
  %129 = icmp ne ptr %128, null
  br i1 %129, label %130, label %157

130:                                              ; preds = %127
  %131 = load i8, ptr %14, align 1, !range !3, !noundef !4
  %132 = trunc i8 %131 to i1
  br i1 %132, label %138, label %133

133:                                              ; preds = %130
  %134 = load ptr, ptr %16, align 8
  %135 = load ptr, ptr %7, align 8
  %136 = invoke noundef ptr @_ZN8nanobind6detail11nb_type_c2pEPNS0_12nb_internalsEPKSt9type_info(ptr noundef %134, ptr noundef %135)
          to label %137 unwind label %161

137:                                              ; preds = %133
  store ptr %136, ptr %15, align 8
  br label %138

138:                                              ; preds = %137, %130
  %139 = load ptr, ptr %15, align 8
  %140 = icmp ne ptr %139, null
  br i1 %140, label %141, label %156

141:                                              ; preds = %138
  %142 = load ptr, ptr %15, align 8
  %143 = getelementptr inbounds nuw %"struct.nanobind::detail::type_data", ptr %142, i32 0, i32 1
  %144 = load i32, ptr %143, align 4
  %145 = lshr i32 %144, 8
  %146 = and i32 %145, 128
  %147 = icmp ne i32 %146, 0
  br i1 %147, label %148, label %156

148:                                              ; preds = %141
  %149 = load ptr, ptr %8, align 8
  %150 = load ptr, ptr %13, align 8
  %151 = load ptr, ptr %15, align 8
  %152 = load ptr, ptr %16, align 8
  %153 = load ptr, ptr %10, align 8
  %154 = load ptr, ptr %11, align 8
  %155 = call noundef zeroext i1 @_ZN8nanobind6detailL20nb_type_get_implicitEP7_objectPKSt9type_infoPKNS0_9type_dataEPNS0_12nb_internalsEPNS0_12cleanup_listEPPv(ptr noundef %149, ptr noundef %150, ptr noundef %151, ptr noundef %152, ptr noundef %153, ptr noundef %154) #20
  store i1 %155, ptr %6, align 1
  store i32 1, ptr %21, align 4
  br label %158

156:                                              ; preds = %141, %138
  br label %157

157:                                              ; preds = %156, %127, %122
  store i1 false, ptr %6, align 1
  store i32 1, ptr %21, align 4
  br label %158

158:                                              ; preds = %157, %148, %119
  call void @llvm.lifetime.end.p0(i64 8, ptr %16) #20
  call void @llvm.lifetime.end.p0(i64 8, ptr %15) #20
  call void @llvm.lifetime.end.p0(i64 1, ptr %14) #20
  call void @llvm.lifetime.end.p0(i64 8, ptr %13) #20
  call void @llvm.lifetime.end.p0(i64 8, ptr %12) #20
  br label %159

159:                                              ; preds = %158, %24
  %160 = load i1, ptr %6, align 1
  ret i1 %160

161:                                              ; preds = %133, %112, %98, %68, %61
  %162 = landingpad { ptr, i32 }
          catch ptr null
  %163 = extractvalue { ptr, i32 } %162, 0
  call void @__clang_call_terminate(ptr %163) #22
  unreachable
}