; Function Attrs: mustprogress nounwind uwtable
define noundef zeroext i1 @_ZN8nanobind6detail11nb_type_getEPKSt9type_infoP7_objecthPNS0_12cleanup_listEPPv(ptr noundef %0, ptr noundef %1, i8 noundef zeroext %2, ptr noundef %3, ptr noundef writeonly captures(none) %4) local_unnamed_addr #5 personality ptr @__gxx_personality_v0 {
  %6 = icmp eq ptr %1, @_Py_NoneStruct
  br i1 %6, label %7, label %8

7:                                                ; preds = %5
  store ptr null, ptr %4, align 8
  br label %.thread67

8:                                                ; preds = %5
  %9 = getelementptr inbounds nuw i8, ptr %1, i64 8
  %10 = load ptr, ptr %9, align 8
  %11 = getelementptr inbounds nuw i8, ptr %10, i64 8
  %12 = load ptr, ptr %11, align 8
  %13 = getelementptr inbounds nuw i8, ptr %12, i64 8
  %14 = load ptr, ptr %13, align 8
  %15 = load ptr, ptr @_ZN8nanobind6detail13nb_meta_cacheE, align 8
  %16 = icmp eq ptr %14, %15
  %17 = load ptr, ptr @_ZN8nanobind6detail9internalsE, align 8
  br i1 %16, label %18, label %.thread71, !prof !3

18:                                               ; preds = %8
  %19 = getelementptr inbounds nuw i8, ptr %10, i64 904
  %20 = load ptr, ptr %19, align 8
  %21 = icmp eq ptr %0, %20
  br i1 %21, label %.thread, label %22

22:                                               ; preds = %18
  %23 = getelementptr inbounds nuw i8, ptr %0, i64 8
  %24 = load ptr, ptr %23, align 8
  %25 = getelementptr inbounds nuw i8, ptr %20, i64 8
  %26 = load ptr, ptr %25, align 8
  %27 = icmp eq ptr %24, %26
  br i1 %27, label %.thread, label %28

28:                                               ; preds = %22
  %29 = load i8, ptr %24, align 1
  %.not.i = icmp eq i8 %29, 42
  br i1 %.not.i, label %_ZNKSt9type_infoeqERKS_.exit.thread56, label %_ZNKSt9type_infoeqERKS_.exit, !prof !50

_ZNKSt9type_infoeqERKS_.exit:                     ; preds = %28
  %30 = load i8, ptr %26, align 1
  %31 = icmp eq i8 %30, 42
  %.idx.i.i = zext i1 %31 to i64
  %32 = getelementptr inbounds nuw i8, ptr %26, i64 %.idx.i.i
  %33 = tail call i32 @strcmp(ptr noundef nonnull dereferenceable(1) %24, ptr noundef nonnull dereferenceable(1) %32) #29
  %34 = icmp eq i32 %33, 0
  br i1 %34, label %.thread, label %_ZNKSt9type_infoeqERKS_.exit.thread56, !prof !51

_ZNKSt9type_infoeqERKS_.exit.thread56:            ; preds = %28, %_ZNKSt9type_infoeqERKS_.exit
  %35 = invoke noundef ptr @_ZN8nanobind6detail11nb_type_c2pEPNS0_12nb_internalsEPKSt9type_info(ptr noundef %17, ptr noundef nonnull %0)
          to label %36 unwind label %81

36:                                               ; preds = %_ZNKSt9type_infoeqERKS_.exit.thread56
  %.not = icmp eq ptr %35, null
  br i1 %.not, label %.thread63, label %37

37:                                               ; preds = %36
  %38 = getelementptr inbounds nuw i8, ptr %35, i64 24
  %39 = load ptr, ptr %38, align 8
  %40 = invoke i32 @PyType_IsSubtype(ptr noundef nonnull %10, ptr noundef %39)
          to label %41 unwind label %81

41:                                               ; preds = %37
  %.not82 = icmp eq i32 %40, 0
  br i1 %.not82, label %.thread63, label %.thread, !prof !52

.thread:                                          ; preds = %22, %18, %_ZNKSt9type_infoeqERKS_.exit, %41
  %42 = and i8 %2, 2
  %43 = zext nneg i8 %42 to i32
  %44 = getelementptr inbounds nuw i8, ptr %1, i64 20
  %45 = load i32, ptr %44, align 4
  %46 = and i32 %45, 3
  %47 = xor i32 %46, %43
  %.not52 = icmp eq i32 %47, 2
  br i1 %.not52, label %56, label %48, !prof !3

48:                                               ; preds = %.thread
  %49 = load ptr, ptr @PyExc_RuntimeWarning, align 8
  %50 = zext nneg i32 %46 to i64
  %51 = getelementptr inbounds nuw [4 x ptr], ptr @__const._ZN8nanobind6detail11nb_type_getEPKSt9type_infoP7_objecthPNS0_12cleanup_listEPPv.errors, i64 0, i64 %50
  %52 = load ptr, ptr %51, align 8
  %53 = getelementptr inbounds nuw i8, ptr %10, i64 896
  %54 = load ptr, ptr %53, align 8
  %55 = invoke i32 (ptr, i64, ptr, ...) @PyErr_WarnFormat(ptr noundef %49, i64 noundef 1, ptr noundef nonnull @.str.17, ptr noundef %52, ptr noundef %54)
          to label %.thread67 unwind label %81

56:                                               ; preds = %.thread
  %57 = ptrtoint ptr %1 to i64
  %58 = getelementptr inbounds nuw i8, ptr %1, i64 16
  %59 = load i32, ptr %58, align 8
  %60 = sext i32 %59 to i64
  %61 = add nsw i64 %60, %57
  %62 = inttoptr i64 %61 to ptr
  %63 = and i32 %45, 4
  %.not.i55 = icmp eq i32 %63, 0
  br i1 %.not.i55, label %64, label %_ZN8nanobind6detail8inst_ptrEPNS0_7nb_instE.exit

64:                                               ; preds = %56
  %65 = load ptr, ptr %62, align 8
  br label %_ZN8nanobind6detail8inst_ptrEPNS0_7nb_instE.exit

_ZN8nanobind6detail8inst_ptrEPNS0_7nb_instE.exit: ; preds = %56, %64
  %66 = phi ptr [ %65, %64 ], [ %62, %56 ]
  store ptr %66, ptr %4, align 8
  br label %.thread67

.thread63:                                        ; preds = %36, %41
  %67 = and i8 %2, 1
  %68 = icmp ne i8 %67, 0
  %69 = icmp ne ptr %3, null
  %or.cond = and i1 %68, %69
  br i1 %or.cond, label %74, label %.thread67

.thread71:                                        ; preds = %8
  %70 = and i8 %2, 1
  %71 = icmp ne i8 %70, 0
  %72 = icmp ne ptr %3, null
  %or.cond74 = and i1 %71, %72
  br i1 %or.cond74, label %.thread77, label %.thread67

.thread77:                                        ; preds = %.thread71
  %73 = invoke noundef ptr @_ZN8nanobind6detail11nb_type_c2pEPNS0_12nb_internalsEPKSt9type_info(ptr noundef %17, ptr noundef %0)
          to label %74 unwind label %81

74:                                               ; preds = %.thread63, %.thread77
  %.0437681 = phi ptr [ null, %.thread77 ], [ %20, %.thread63 ]
  %.246 = phi ptr [ %73, %.thread77 ], [ %35, %.thread63 ]
  %.not53 = icmp eq ptr %.246, null
  br i1 %.not53, label %.thread67, label %75

75:                                               ; preds = %74
  %76 = getelementptr inbounds nuw i8, ptr %.246, i64 4
  %77 = load i32, ptr %76, align 4
  %78 = and i32 %77, 32768
  %.not54 = icmp eq i32 %78, 0
  br i1 %.not54, label %.thread67, label %79

79:                                               ; preds = %75
  %80 = tail call fastcc noundef zeroext i1 @_ZN8nanobind6detailL20nb_type_get_implicitEP7_objectPKSt9type_infoPKNS0_9type_dataEPNS0_12nb_internalsEPNS0_12cleanup_listEPPv(ptr noundef %1, ptr noundef %.0437681, ptr noundef %.246, ptr noundef %17, ptr noundef %3, ptr noundef %4) #29
  br label %.thread67

.thread67:                                        ; preds = %_ZN8nanobind6detail8inst_ptrEPNS0_7nb_instE.exit, %48, %.thread71, %79, %74, %75, %.thread63, %7
  %.040 = phi i1 [ true, %7 ], [ %80, %79 ], [ false, %74 ], [ false, %75 ], [ false, %.thread63 ], [ false, %.thread71 ], [ true, %_ZN8nanobind6detail8inst_ptrEPNS0_7nb_instE.exit ], [ false, %48 ]
  ret i1 %.040

81:                                               ; preds = %.thread77, %48, %37, %_ZNKSt9type_infoeqERKS_.exit.thread56
  %82 = landingpad { ptr, i32 }
          catch ptr null
  %83 = extractvalue { ptr, i32 } %82, 0
  tail call void @__clang_call_terminate(ptr %83) #30
  unreachable
}